target datalayout = "e-m:e-p270:32:32-p271:32:32-p272:64:64-i64:64-i128:128-f80:128-n8:16:32:64-S128"
target triple = "x86_64-pc-linux-gnu"

%struct.Vmem = type { ptr, i64, i64 }
%struct.ParseContext_ = type { %struct.TokenData, i32, %union.SourceSpan, %union.SourceSpan, ptr, %struct.Lexer }
%struct.TokenData = type { ptr, i64, %union.anon.86 }
%union.anon.86 = type { %struct.anon.89 }
%struct.anon.89 = type { %struct.Int128_, i8 }
%struct.Int128_ = type { i64, i64 }
%union.SourceSpan = type { i64 }
%struct.Lexer = type { ptr, ptr, ptr, ptr, i32, i32, ptr, ptr, ptr, %struct.TokenData, %union.SourceSpan, i32, i32 }
%struct.Ast_ = type { %union.SourceSpan, i32, i8, %union.anon.62 }
%union.anon.62 = type { %struct.AstDocDirective_ }
%struct.AstDocDirective_ = type { i8, %union.anon.65 }
%union.anon.65 = type { %struct.anon.66 }
%struct.anon.66 = type { ptr, %union.SourceSpan, i8 }
%struct.anon.0 = type { i16, i8, i8, i32 }
%struct.AstContinueBreakStmt = type { i8, i32, %union.anon.64 }
%union.anon.64 = type { %struct.Label }
%struct.Label = type { ptr, %union.SourceSpan }

@poisoned_ast = external global ptr, align 8
@.str.11 = private unnamed_addr constant [13 x i8] c"Expected ';'\00", align 1
@ast_arena = external global %struct.Vmem, align 8

; Function Attrs: nounwind uwtable
define internal i64 @extend_span_with_token(i64 %0, i64 %1) #0 {
  %3 = alloca %union.SourceSpan, align 8
  %4 = alloca %union.SourceSpan, align 8
  %5 = alloca %union.SourceSpan, align 8
  %6 = getelementptr inbounds %union.SourceSpan, ptr %4, i32 0, i32 0
  store i64 %0, ptr %6, align 8
  %7 = getelementptr inbounds %union.SourceSpan, ptr %5, i32 0, i32 0
  store i64 %1, ptr %7, align 8
  %8 = getelementptr inbounds %struct.anon.0, ptr %4, i32 0, i32 3
  %9 = load i32, ptr %8, align 4
  %10 = getelementptr inbounds %struct.anon.0, ptr %5, i32 0, i32 3
  %11 = load i32, ptr %10, align 4
  %12 = icmp ne i32 %9, %11
  br i1 %12, label %13, label %14

13:                                               ; preds = %2
  call void @llvm.memcpy.p0.p0.i64(ptr align 8 %3, ptr align 8 %4, i64 8, i1 false)
  br label %28

14:                                               ; preds = %2
  %15 = getelementptr inbounds %struct.anon.0, ptr %5, i32 0, i32 2
  %16 = load i8, ptr %15, align 1
  %17 = zext i8 %16 to i32
  %18 = getelementptr inbounds %struct.anon.0, ptr %5, i32 0, i32 1
  %19 = load i8, ptr %18, align 2
  %20 = zext i8 %19 to i32
  %21 = add nsw i32 %17, %20
  %22 = getelementptr inbounds %struct.anon.0, ptr %4, i32 0, i32 2
  %23 = load i8, ptr %22, align 1
  %24 = zext i8 %23 to i32
  %25 = sub nsw i32 %21, %24
  %26 = trunc i32 %25 to i8
  %27 = getelementptr inbounds %struct.anon.0, ptr %4, i32 0, i32 1
  store i8 %26, ptr %27, align 2
  call void @llvm.memcpy.p0.p0.i64(ptr align 8 %3, ptr align 8 %4, i64 8, i1 false)
  br label %28

28:                                               ; preds = %14, %13
  %29 = getelementptr inbounds %union.SourceSpan, ptr %3, i32 0, i32 0
  %30 = load i64, ptr %29, align 8
  ret i64 %30
}

; Function Attrs: nounwind uwtable
define internal void @parse_optional_label_target(ptr noundef %0, ptr noundef %1) #0 {
  %3 = alloca ptr, align 8
  %4 = alloca ptr, align 8
  %5 = alloca i32, align 4
  %6 = alloca ptr, align 8
  %7 = alloca i32, align 4
  %8 = alloca ptr, align 8
  %9 = alloca ptr, align 8
  store ptr %0, ptr %8, align 8
  store ptr %1, ptr %9, align 8
  %10 = load ptr, ptr %8, align 8
  store ptr %10, ptr %4, align 8
  store i32 65, ptr %5, align 4
  %11 = load ptr, ptr %4, align 8
  %12 = getelementptr inbounds %struct.ParseContext_, ptr %11, i32 0, i32 1
  %13 = load i32, ptr %12, align 8
  %14 = load i32, ptr %5, align 4
  %15 = icmp eq i32 %13, %14
  br i1 %15, label %16, label %29

16:                                               ; preds = %2
  %17 = load ptr, ptr %9, align 8
  %18 = getelementptr inbounds %struct.Label, ptr %17, i32 0, i32 1
  %19 = load ptr, ptr %8, align 8
  %20 = getelementptr inbounds %struct.ParseContext_, ptr %19, i32 0, i32 2
  call void @llvm.memcpy.p0.p0.i64(ptr align 8 %18, ptr align 8 %20, i64 8, i1 false)
  %21 = load ptr, ptr %8, align 8
  store ptr %21, ptr %3, align 8
  %22 = load ptr, ptr %3, align 8
  %23 = getelementptr inbounds %struct.TokenData, ptr %22, i32 0, i32 2
  %24 = load ptr, ptr %23, align 8
  %25 = load ptr, ptr %9, align 8
  %26 = getelementptr inbounds %struct.Label, ptr %25, i32 0, i32 0
  store ptr %24, ptr %26, align 8
  %27 = load ptr, ptr %8, align 8
  store ptr %27, ptr %6, align 8
  store i32 65, ptr %7, align 4
  %28 = load ptr, ptr %6, align 8
  call void @advance(ptr noundef %28) #4
  br label %29

29:                                               ; preds = %16, %2
  ret void
}

; Function Attrs: nounwind uwtable
define internal ptr @ast_calloc() #0 {
  %1 = call ptr @vmem_alloc(ptr noundef @ast_arena, i64 noundef 48)
  ret ptr %1
}

; Function Attrs: nounwind uwtable
define internal ptr @parse_break_stmt(ptr noundef %0) #0 {
  %2 = alloca ptr, align 8
  %3 = alloca i32, align 4
  %4 = alloca %union.SourceSpan, align 8
  %5 = alloca i32, align 4
  %6 = alloca ptr, align 8
  %7 = alloca ptr, align 8
  %8 = alloca i32, align 4
  %9 = alloca ptr, align 8
  %10 = alloca ptr, align 8
  %11 = alloca ptr, align 8
  %12 = alloca %union.SourceSpan, align 8
  store ptr %0, ptr %10, align 8
  %13 = load ptr, ptr %10, align 8
  %14 = getelementptr inbounds %struct.ParseContext_, ptr %13, i32 0, i32 2
  %15 = getelementptr inbounds %union.SourceSpan, ptr %14, i32 0, i32 0
  %16 = load i64, ptr %15, align 8
  store i64 %16, ptr %4, align 8
  store i32 4, ptr %5, align 4
  %17 = call ptr @ast_calloc()
  store ptr %17, ptr %6, align 8
  %18 = load ptr, ptr %6, align 8
  call void @llvm.memcpy.p0.p0.i64(ptr align 8 %18, ptr align 8 %4, i64 8, i1 false)
  %19 = load i32, ptr %5, align 4
  %20 = load ptr, ptr %6, align 8
  %21 = getelementptr inbounds %struct.Ast_, ptr %20, i32 0, i32 2
  %22 = trunc i32 %19 to i8
  store i8 %22, ptr %21, align 4
  %23 = load ptr, ptr %6, align 8
  store ptr %23, ptr %11, align 8
  %24 = load ptr, ptr %10, align 8
  store ptr %24, ptr %7, align 8
  store i32 108, ptr %8, align 4
  %25 = load ptr, ptr %7, align 8
  call void @advance(ptr noundef %25) #4
  %26 = load ptr, ptr %10, align 8
  %27 = load ptr, ptr %11, align 8
  %28 = getelementptr inbounds %struct.Ast_, ptr %27, i32 0, i32 3
  %29 = getelementptr inbounds %struct.AstContinueBreakStmt, ptr %28, i32 0, i32 2
  call void @parse_optional_label_target(ptr noundef %26, ptr noundef %29)
  %30 = load ptr, ptr %11, align 8
  %31 = getelementptr inbounds %struct.Ast_, ptr %30, i32 0, i32 3
  %32 = getelementptr inbounds %struct.AstContinueBreakStmt, ptr %31, i32 0, i32 2
  %33 = getelementptr inbounds %struct.Label, ptr %32, i32 0, i32 0
  %34 = load ptr, ptr %33, align 8
  %35 = icmp ne ptr %34, null
  br i1 %35, label %36, label %42

36:                                               ; preds = %1
  %37 = load ptr, ptr %11, align 8
  %38 = getelementptr inbounds %struct.Ast_, ptr %37, i32 0, i32 3
  %39 = load i8, ptr %38, align 8
  %40 = and i8 %39, -2
  %41 = or i8 %40, 1
  store i8 %41, ptr %38, align 8
  br label %42

42:                                               ; preds = %36, %1
  br label %43

43:                                               ; preds = %42
  %44 = load ptr, ptr %11, align 8
  %45 = getelementptr inbounds %struct.Ast_, ptr %44, i32 0, i32 0
  %46 = load ptr, ptr %11, align 8
  %47 = getelementptr inbounds %struct.Ast_, ptr %46, i32 0, i32 0
  %48 = load ptr, ptr %10, align 8
  %49 = getelementptr inbounds %struct.ParseContext_, ptr %48, i32 0, i32 3
  %50 = getelementptr inbounds %union.SourceSpan, ptr %47, i32 0, i32 0
  %51 = load i64, ptr %50, align 8
  %52 = getelementptr inbounds %union.SourceSpan, ptr %49, i32 0, i32 0
  %53 = load i64, ptr %52, align 8
  %54 = call i64 @extend_span_with_token(i64 %51, i64 %53)
  %55 = getelementptr inbounds %union.SourceSpan, ptr %12, i32 0, i32 0
  store i64 %54, ptr %55, align 8
  call void @llvm.memcpy.p0.p0.i64(ptr align 8 %45, ptr align 8 %12, i64 8, i1 false)
  br label %56

56:                                               ; preds = %43
  br label %57

57:                                               ; preds = %56
  %58 = load ptr, ptr %10, align 8
  store ptr %58, ptr %2, align 8
  store i32 9, ptr %3, align 4
  %59 = load ptr, ptr %2, align 8
  %60 = getelementptr inbounds %struct.ParseContext_, ptr %59, i32 0, i32 1
  %61 = load i32, ptr %60, align 8
  %62 = load i32, ptr %3, align 4
  %63 = icmp eq i32 %61, %62
  br i1 %63, label %70, label %64

64:                                               ; preds = %57
  %65 = load ptr, ptr %10, align 8
  %66 = getelementptr inbounds %struct.ParseContext_, ptr %65, i32 0, i32 3
  %67 = getelementptr inbounds %union.SourceSpan, ptr %66, i32 0, i32 0
  %68 = load i64, ptr %67, align 8
  call void (i64, ptr, ...) @sema_error_at_after(i64 %68, ptr noundef @.str.11)
  %69 = load ptr, ptr @poisoned_ast, align 8
  store ptr %69, ptr %9, align 8
  br label %74

70:                                               ; preds = %57
  %71 = load ptr, ptr %10, align 8
  call void @advance(ptr noundef %71)
  br label %72

72:                                               ; preds = %70
  %73 = load ptr, ptr %11, align 8
  store ptr %73, ptr %9, align 8
  br label %74

74:                                               ; preds = %72, %64
  %75 = load ptr, ptr %9, align 8
  ret ptr %75
}