; Function Attrs: nounwind uwtable
define internal fastcc ptr @parse_break_stmt(ptr noundef %0) unnamed_addr #0 {
  %2 = getelementptr inbounds i8, ptr %0, i64 48
  %3 = load i64, ptr %2, align 8
  %4 = tail call ptr @vmem_alloc(ptr noundef nonnull @ast_arena, i64 noundef 48) #5
  store i64 %3, ptr %4, align 8
  %5 = getelementptr inbounds i8, ptr %4, i64 12
  store i8 4, ptr %5, align 4
  tail call void @advance(ptr noundef %0) #5
  %6 = getelementptr inbounds i8, ptr %4, i64 24
  %7 = getelementptr inbounds i8, ptr %0, i64 40
  %8 = load i32, ptr %7, align 8
  %9 = icmp eq i32 %8, 65
  br i1 %9, label %10, label %parse_optional_label_target.exit

10:                                               ; preds = %1
  %11 = getelementptr inbounds i8, ptr %4, i64 32
  %12 = load i64, ptr %2, align 8
  store i64 %12, ptr %11, align 8
  %13 = getelementptr inbounds i8, ptr %0, i64 16
  %14 = load ptr, ptr %13, align 8
  store ptr %14, ptr %6, align 8
  tail call void @advance(ptr noundef nonnull %0) #5
  br label %parse_optional_label_target.exit

parse_optional_label_target.exit:                 ; preds = %1, %10
  %15 = load ptr, ptr %6, align 8
  %.not = icmp eq ptr %15, null
  br i1 %.not, label %20, label %16

16:                                               ; preds = %parse_optional_label_target.exit
  %17 = getelementptr inbounds i8, ptr %4, i64 16
  %18 = load i8, ptr %17, align 8
  %19 = or i8 %18, 1
  store i8 %19, ptr %17, align 8
  br label %20

20:                                               ; preds = %parse_optional_label_target.exit, %16
  %21 = getelementptr inbounds i8, ptr %0, i64 56
  %22 = load i64, ptr %4, align 8
  %23 = load i64, ptr %21, align 8
  %.not.unshifted.i = xor i64 %23, %22
  %.not.i = icmp ult i64 %.not.unshifted.i, 4294967296
  br i1 %.not.i, label %25, label %24

24:                                               ; preds = %20
  %.sroa.33.0.extract.shift.i = lshr i64 %22, 16
  br label %extend_span_with_token.exit

25:                                               ; preds = %20
  %.sroa.4.0.extract.shift.i = lshr i64 %22, 24
  %26 = trunc i64 %23 to i32
  %27 = lshr i32 %26, 24
  %28 = lshr i32 %26, 16
  %29 = trunc i64 %.sroa.4.0.extract.shift.i to i32
  %30 = sub i32 %28, %29
  %31 = add i32 %30, %27
  %32 = zext i32 %31 to i64
  br label %extend_span_with_token.exit

extend_span_with_token.exit:                      ; preds = %24, %25
  %.sroa.311.0.i = phi i64 [ %.sroa.33.0.extract.shift.i, %24 ], [ %32, %25 ]
  %.sroa.311.0.insert.ext.i = shl nuw i64 %.sroa.311.0.i, 16
  %.sroa.311.0.insert.shift.i = and i64 %.sroa.311.0.insert.ext.i, 16711680
  %33 = and i64 %22, -16711681
  %.sroa.010.0.insert.insert.i = or disjoint i64 %.sroa.311.0.insert.shift.i, %33
  store i64 %.sroa.010.0.insert.insert.i, ptr %4, align 8
  %34 = load i32, ptr %7, align 8
  %35 = icmp eq i32 %34, 9
  br i1 %35, label %39, label %36

36:                                               ; preds = %extend_span_with_token.exit
  %37 = load i64, ptr %21, align 8
  tail call void (i64, ptr, ...) @sema_error_at_after(i64 %37, ptr noundef nonnull @.str.11) #5
  %38 = load ptr, ptr @poisoned_ast, align 8
  br label %40

39:                                               ; preds = %extend_span_with_token.exit
  tail call void @advance(ptr noundef nonnull %0) #5
  br label %40

40:                                               ; preds = %39, %36
  %.0 = phi ptr [ %4, %39 ], [ %38, %36 ]
  ret ptr %.0
}